ARM GAS  /cygdrive/c/DOCUME~1/MARKOP~1/LOCALS~1/Temp/ccd60SXg.s 			page 1


   1              		.file	"test.c"
   8 0000 7E000000 		.text
   8      02003F00 
   8      00000201 
   8      FB0E0A00 
   8      01010101 
   9              	.Ltext0:
  10              		.global	EVENT_MSG
  11              		.data
  12              		.align	2
  13              		.type	EVENT_MSG, %object
  14              		.size	EVENT_MSG, 44
  15              	EVENT_MSG:
  16 0000 00000000 		.word	0
  17 0004 00000000 		.word	0
  18 0008 00000000 		.word	0
  19 000c 00000000 		.word	0
  20 0010 00000000 		.word	0
  21 0014 00000000 		.word	0
  22 0018 00000000 		.word	0
  23 001c 00000000 		.word	0
  24 0020 00000000 		.word	mcb_buff_EVENT_MSG
  25 0024 00000000 		.word	mcb_msg_EVENT_MSG
  26 0028 01       		.byte	1
  27 0029 05       		.byte	5
  28 002a 0000     		.space	2
  29              		.global	bcb_tic_BUF
  30              		.align	2
  31              		.type	bcb_tic_BUF, %object
  32              		.size	bcb_tic_BUF, 32
  33              	bcb_tic_BUF:
  34 002c 00000000 		.word	0
  35 0030 00000000 		.word	0
  36 0034 FFFF     		.short	-1
  37 0036 0000     		.short	0
  38 0038 00000000 		.word	buff_dummy_clb
  39 003c 00       		.byte	0
  40 003d 000000   		.space	3
  41 0040 00000000 		.word	0
  42 0044 00000000 		.word	0
  43 0048 00       		.byte	0
  44 0049 000000   		.space	3
  45              		.global	BUF
  46              		.align	2
  47              		.type	BUF, %object
  48              		.size	BUF, 32
  49              	BUF:
  50 004c 00000000 		.word	bcb_buff_BUF
  51 0050 00000000 		.word	bcb_buff_BUF
  52 0054 00000000 		.word	bcb_buff_BUF
  53 0058 0C000000 		.word	bcb_buff_BUF+12
ARM GAS  /cygdrive/c/DOCUME~1/MARKOP~1/LOCALS~1/Temp/ccd60SXg.s 			page 2


  54 005c 0000     		.short	0
  55 005e 0000     		.short	0
  56 0060 03       		.byte	3
  57 0061 00       		.byte	0
  58 0062 0000     		.space	2
  59 0064 00000000 		.word	buff_dummy_clb
  60 0068 00000000 		.word	bcb_tic_BUF
  61              		.text
  62              		.align	2
  63              		.global	TSK1
  64              		.type	TSK1, %function
  65              	TSK1:
  66              	.LFB2:
  67              		.file 1 "../../test/test.c"
   1:../../test/test.c **** #include <usmartx.h>
   2:../../test/test.c **** #include <mailbox.h>
   3:../../test/test.c **** #include <mballoc.h>
   4:../../test/test.c **** #include <cycbuff.h>
   5:../../test/test.c **** 
   6:../../test/test.c **** TSK_CREATE(TSK1_tcb);
   7:../../test/test.c **** TSK_CREATE(TSK3_tcb);
   8:../../test/test.c **** TSK_CREATE(TSK2_tcb);
   9:../../test/test.c **** 
  10:../../test/test.c **** TMR_CREATE(DEMO_TMR);
  11:../../test/test.c **** MBX_CREATE(EVENT_MSG, 5, sizeof(uint8));
  12:../../test/test.c **** 
  13:../../test/test.c **** BUF_CREATE(BUF, 4, 3);
  14:../../test/test.c **** 
  15:../../test/test.c **** STATUS TSK1(STATUS evt) {
  68              		.loc 1 15 0
  69              		@ args = 0, pretend = 0, frame = 4
  70              		@ frame_needed = 1, uses_anonymous_args = 0
  71 0000 0DC0A0E1 		mov	ip, sp
  72              	.LCFI0:
  73 0004 00D82DE9 		stmfd	sp!, {fp, ip, lr, pc}
  74              	.LCFI1:
  75 0008 04B04CE2 		sub	fp, ip, #4
  76              	.LCFI2:
  77 000c 04D04DE2 		sub	sp, sp, #4
  78              	.LCFI3:
  79 0010 10000BE5 		str	r0, [fp, #-16]
  16:../../test/test.c **** 	/* DEMO */
  17:../../test/test.c **** 	TSK_Sleep( TSK_Self(), 100);
  80              		.loc 1 17 0
  81 0014 FEFFFFEB 		bl	TSK_Self
  82 0018 0030A0E1 		mov	r3, r0
  83 001c 0300A0E1 		mov	r0, r3
  84 0020 6410A0E3 		mov	r1, #100
  85 0024 FEFFFFEB 		bl	TSK_Sleep
  18:../../test/test.c **** 	return SYS_OK;
  86              		.loc 1 18 0
  87 0028 0030A0E3 		mov	r3, #0
  19:../../test/test.c **** }
  88              		.loc 1 19 0
  89 002c 0300A0E1 		mov	r0, r3
  90 0030 08A89DE8 		ldmfd	sp, {r3, fp, sp, pc}
  91              	.LFE2:
ARM GAS  /cygdrive/c/DOCUME~1/MARKOP~1/LOCALS~1/Temp/ccd60SXg.s 			page 3


  92              		.size	TSK1, .-TSK1
  93              		.bss
  94              	ucTest.0:
  95 0000 00       		.space	1
  96              		.text
  97              		.align	2
  98              		.global	TSK2
  99              		.type	TSK2, %function
 100              	TSK2:
 101              	.LFB3:
  20:../../test/test.c **** 
  21:../../test/test.c **** STATUS TSK2(STATUS evt) {
 102              		.loc 1 21 0
 103              		@ args = 0, pretend = 0, frame = 4
 104              		@ frame_needed = 1, uses_anonymous_args = 0
 105 0034 0DC0A0E1 		mov	ip, sp
 106              	.LCFI4:
 107 0038 00D82DE9 		stmfd	sp!, {fp, ip, lr, pc}
 108              	.LCFI5:
 109 003c 04B04CE2 		sub	fp, ip, #4
 110              	.LCFI6:
 111 0040 04D04DE2 		sub	sp, sp, #4
 112              	.LCFI7:
 113 0044 10000BE5 		str	r0, [fp, #-16]
  22:../../test/test.c **** 	static uint8 ucTest;
  23:../../test/test.c **** 	/* DEMO */
  24:../../test/test.c **** 	if( MBX_Pend(&EVENT_MSG, &ucTest, 500) == SYS_OK ) {
 114              		.loc 1 24 0
 115 0048 14009FE5 		ldr	r0, .L7
 116 004c 14109FE5 		ldr	r1, .L7+4
 117 0050 7D2FA0E3 		mov	r2, #500
 118 0054 FEFFFFEB 		bl	MBX_Pend
  25:../../test/test.c **** 	
  26:../../test/test.c **** 		switch( ucTest ) {
  27:../../test/test.c **** 			case 100:
  28:../../test/test.c **** 				/* Handle event 100 here */
  29:../../test/test.c **** 				break;
  30:../../test/test.c **** 			default:
  31:../../test/test.c **** 				break;	
  32:../../test/test.c **** 		}	
  33:../../test/test.c **** 		
  34:../../test/test.c **** 	}
  35:../../test/test.c **** 	return SYS_OK;
 119              		.loc 1 35 0
 120 0058 0030A0E3 		mov	r3, #0
  36:../../test/test.c **** }
 121              		.loc 1 36 0
 122 005c 0300A0E1 		mov	r0, r3
 123 0060 08A89DE8 		ldmfd	sp, {r3, fp, sp, pc}
 124              	.L8:
 125              		.align	2
 126              	.L7:
 127 0064 00000000 		.word	EVENT_MSG
 128 0068 00000000 		.word	ucTest.0
 129              	.LFE3:
 130              		.size	TSK2, .-TSK2
 131              		.align	2
ARM GAS  /cygdrive/c/DOCUME~1/MARKOP~1/LOCALS~1/Temp/ccd60SXg.s 			page 4


 132              		.global	TSK3
 133              		.type	TSK3, %function
 134              	TSK3:
 135              	.LFB4:
  37:../../test/test.c **** 
  38:../../test/test.c **** STATUS TSK3(STATUS evt) {
 136              		.loc 1 38 0
 137              		@ args = 0, pretend = 0, frame = 4
 138              		@ frame_needed = 1, uses_anonymous_args = 0
 139 006c 0DC0A0E1 		mov	ip, sp
 140              	.LCFI8:
 141 0070 00D82DE9 		stmfd	sp!, {fp, ip, lr, pc}
 142              	.LCFI9:
 143 0074 04B04CE2 		sub	fp, ip, #4
 144              	.LCFI10:
 145 0078 04D04DE2 		sub	sp, sp, #4
 146              	.LCFI11:
 147 007c 10000BE5 		str	r0, [fp, #-16]
  39:../../test/test.c **** 	TSK_Sleep( TSK_Self(), 30);
 148              		.loc 1 39 0
 149 0080 FEFFFFEB 		bl	TSK_Self
 150 0084 0030A0E1 		mov	r3, r0
 151 0088 0300A0E1 		mov	r0, r3
 152 008c 1E10A0E3 		mov	r1, #30
 153 0090 FEFFFFEB 		bl	TSK_Sleep
  40:../../test/test.c **** 	return SYS_OK;
 154              		.loc 1 40 0
 155 0094 0030A0E3 		mov	r3, #0
  41:../../test/test.c **** 	
  42:../../test/test.c **** }
 156              		.loc 1 42 0
 157 0098 0300A0E1 		mov	r0, r3
 158 009c 08A89DE8 		ldmfd	sp, {r3, fp, sp, pc}
 159              	.LFE4:
 160              		.size	TSK3, .-TSK3
 161              		.global	tsk_tbl
 162              		.data
 163              		.align	2
 164              		.type	tsk_tbl, %object
 165              		.size	tsk_tbl, 80
 166              	tsk_tbl:
 167 006c 00000000 		.word	TSK1
 168 0070 00000000 		.word	TSK1_tcb
 169 0074 01       		.byte	1
 170 0075 5441534B 		.ascii	"TASK1\000"
 170      3100
 171 007b 00000000 		.space	4
 172 007f 00       		.space	1
 173 0080 00000000 		.word	TSK2
 174 0084 00000000 		.word	TSK2_tcb
 175 0088 02       		.byte	2
 176 0089 5441534B 		.ascii	"TASK2\000"
 176      3200
 177 008f 00000000 		.space	4
 178 0093 00       		.space	1
 179 0094 00000000 		.word	TSK3
 180 0098 00000000 		.word	TSK3_tcb
ARM GAS  /cygdrive/c/DOCUME~1/MARKOP~1/LOCALS~1/Temp/ccd60SXg.s 			page 5


 181 009c 03       		.byte	3
 182 009d 5441534B 		.ascii	"TASK3\000"
 182      3300
 183 00a3 00000000 		.space	4
 184 00a7 00       		.space	1
 185 00a8 00000000 		.word	0
 186 00ac 00000000 		.word	0
 187 00b0 00000000 		.space	12
 187      00000000 
 187      00000000 
 188              		.text
 189              		.align	2
 190              		.global	TimeoutHandler
 191              		.type	TimeoutHandler, %function
 192              	TimeoutHandler:
 193              	.LFB5:
  43:../../test/test.c **** 
  44:../../test/test.c **** task_entry_t tsk_tbl[] = {	{&TSK1, &TSK1_tcb, 1, "TASK1"},
  45:../../test/test.c **** 							{&TSK2, &TSK2_tcb, 2, "TASK2"},
  46:../../test/test.c **** 							{&TSK3, &TSK3_tcb, 3, "TASK3"},
  47:../../test/test.c **** 							{0, 0}
  48:../../test/test.c **** 							};
  49:../../test/test.c **** 													
  50:../../test/test.c **** 
  51:../../test/test.c **** STATUS TimeoutHandler(uint8 Event, void *pArg1, void *pArg2) {	
 194              		.loc 1 51 0
 195              		@ args = 0, pretend = 0, frame = 12
 196              		@ frame_needed = 1, uses_anonymous_args = 0
 197 00a0 0DC0A0E1 		mov	ip, sp
 198              	.LCFI12:
 199 00a4 00D82DE9 		stmfd	sp!, {fp, ip, lr, pc}
 200              	.LCFI13:
 201 00a8 04B04CE2 		sub	fp, ip, #4
 202              	.LCFI14:
 203 00ac 0CD04DE2 		sub	sp, sp, #12
 204              	.LCFI15:
 205 00b0 0030A0E1 		mov	r3, r0
 206 00b4 14100BE5 		str	r1, [fp, #-20]
 207 00b8 18200BE5 		str	r2, [fp, #-24]
 208 00bc 0D304BE5 		strb	r3, [fp, #-13]
  52:../../test/test.c **** 	//MBX_Post(pArg1, &Event, 0);
  53:../../test/test.c **** 	return SYS_OK;
 209              		.loc 1 53 0
 210 00c0 0030A0E3 		mov	r3, #0
  54:../../test/test.c **** }
 211              		.loc 1 54 0
 212 00c4 0300A0E1 		mov	r0, r3
 213 00c8 0CD04BE2 		sub	sp, fp, #12
 214 00cc 00A89DE8 		ldmfd	sp, {fp, sp, pc}
 215              	.LFE5:
 216              		.size	TimeoutHandler, .-TimeoutHandler
 217              		.section	.rodata
 218              		.align	2
 219              	.LC0:
 220 0000 31323300 		.ascii	"123\000"
 221              		.align	2
 222              	.LC1:
ARM GAS  /cygdrive/c/DOCUME~1/MARKOP~1/LOCALS~1/Temp/ccd60SXg.s 			page 6


 223 0004 34353600 		.ascii	"456\000"
 224              		.align	2
 225              	.LC2:
 226 0008 37383900 		.ascii	"789\000"
 227              		.align	2
 228              	.LC3:
 229 000c 61626300 		.ascii	"abc\000"
 230              		.align	2
 231              	.LC4:
 232 0010 64656600 		.ascii	"def\000"
 233              		.align	2
 234              	.LC5:
 235 0014 33323100 		.ascii	"321\000"
 236              		.text
 237              		.align	2
 238              		.global	main
 239              		.type	main, %function
 240              	main:
 241              	.LFB6:
  55:../../test/test.c **** 
  56:../../test/test.c **** int main(void) {
 242              		.loc 1 56 0
 243              		@ args = 0, pretend = 0, frame = 4
 244              		@ frame_needed = 1, uses_anonymous_args = 0
 245 00d0 0DC0A0E1 		mov	ip, sp
 246              	.LCFI16:
 247 00d4 00D82DE9 		stmfd	sp!, {fp, ip, lr, pc}
 248              	.LCFI17:
 249 00d8 04B04CE2 		sub	fp, ip, #4
 250              	.LCFI18:
 251 00dc 10D04DE2 		sub	sp, sp, #16
 252              	.LCFI19:
  57:../../test/test.c **** 	uint8 data[3];
  58:../../test/test.c **** 	
  59:../../test/test.c **** 	BUF_AppendTrgFxn(&BUF, 2, &TimeoutHandler);
 253              		.loc 1 59 0
 254 00e0 30019FE5 		ldr	r0, .L17
 255 00e4 0210A0E3 		mov	r1, #2
 256 00e8 2C219FE5 		ldr	r2, .L17+4
 257 00ec FEFFFFEB 		bl	BUF_AppendTrgFxn
  60:../../test/test.c **** 	BUF_AppendToutFxn(&BUF, 5, &TimeoutHandler);
 258              		.loc 1 60 0
 259 00f0 20019FE5 		ldr	r0, .L17
 260 00f4 0510A0E3 		mov	r1, #5
 261 00f8 1C219FE5 		ldr	r2, .L17+4
 262 00fc FEFFFFEB 		bl	BUF_AppendToutFxn
  61:../../test/test.c **** 	
  62:../../test/test.c **** 	BUF_Put(&BUF, "123");
 263              		.loc 1 62 0
 264 0100 10019FE5 		ldr	r0, .L17
 265 0104 14119FE5 		ldr	r1, .L17+8
 266 0108 FEFFFFEB 		bl	BUF_Put
  63:../../test/test.c **** 	BUF_Put(&BUF, "456");
 267              		.loc 1 63 0
 268 010c 04019FE5 		ldr	r0, .L17
 269 0110 0C119FE5 		ldr	r1, .L17+12
 270 0114 FEFFFFEB 		bl	BUF_Put
ARM GAS  /cygdrive/c/DOCUME~1/MARKOP~1/LOCALS~1/Temp/ccd60SXg.s 			page 7


  64:../../test/test.c **** 	BUF_Put(&BUF, "789");
 271              		.loc 1 64 0
 272 0118 F8009FE5 		ldr	r0, .L17
 273 011c 04119FE5 		ldr	r1, .L17+16
 274 0120 FEFFFFEB 		bl	BUF_Put
  65:../../test/test.c **** 	BUF_Put(&BUF, "abc");
 275              		.loc 1 65 0
 276 0124 EC009FE5 		ldr	r0, .L17
 277 0128 FC109FE5 		ldr	r1, .L17+20
 278 012c FEFFFFEB 		bl	BUF_Put
  66:../../test/test.c **** 		
  67:../../test/test.c **** 	BUF_Get(&BUF, &data);
 279              		.loc 1 67 0
 280 0130 10304BE2 		sub	r3, fp, #16
 281 0134 DC009FE5 		ldr	r0, .L17
 282 0138 0310A0E1 		mov	r1, r3
 283 013c FEFFFFEB 		bl	BUF_Get
  68:../../test/test.c **** 	BUF_Put(&BUF, "def");
 284              		.loc 1 68 0
 285 0140 D0009FE5 		ldr	r0, .L17
 286 0144 E4109FE5 		ldr	r1, .L17+24
 287 0148 FEFFFFEB 		bl	BUF_Put
  69:../../test/test.c **** 	
  70:../../test/test.c **** 	BUF_Get(&BUF, &data);
 288              		.loc 1 70 0
 289 014c 10304BE2 		sub	r3, fp, #16
 290 0150 C0009FE5 		ldr	r0, .L17
 291 0154 0310A0E1 		mov	r1, r3
 292 0158 FEFFFFEB 		bl	BUF_Get
  71:../../test/test.c **** 	BUF_Get(&BUF, &data);
 293              		.loc 1 71 0
 294 015c 10304BE2 		sub	r3, fp, #16
 295 0160 B0009FE5 		ldr	r0, .L17
 296 0164 0310A0E1 		mov	r1, r3
 297 0168 FEFFFFEB 		bl	BUF_Get
  72:../../test/test.c **** 	BUF_Get(&BUF, &data);
 298              		.loc 1 72 0
 299 016c 10304BE2 		sub	r3, fp, #16
 300 0170 A0009FE5 		ldr	r0, .L17
 301 0174 0310A0E1 		mov	r1, r3
 302 0178 FEFFFFEB 		bl	BUF_Get
  73:../../test/test.c **** 	BUF_Get(&BUF, &data);
 303              		.loc 1 73 0
 304 017c 10304BE2 		sub	r3, fp, #16
 305 0180 90009FE5 		ldr	r0, .L17
 306 0184 0310A0E1 		mov	r1, r3
 307 0188 FEFFFFEB 		bl	BUF_Get
  74:../../test/test.c **** 	BUF_Get(&BUF, &data);
 308              		.loc 1 74 0
 309 018c 10304BE2 		sub	r3, fp, #16
 310 0190 80009FE5 		ldr	r0, .L17
 311 0194 0310A0E1 		mov	r1, r3
 312 0198 FEFFFFEB 		bl	BUF_Get
  75:../../test/test.c **** 	
  76:../../test/test.c **** 	BUF_Put(&BUF, "321");
 313              		.loc 1 76 0
 314 019c 74009FE5 		ldr	r0, .L17
ARM GAS  /cygdrive/c/DOCUME~1/MARKOP~1/LOCALS~1/Temp/ccd60SXg.s 			page 8


 315 01a0 8C109FE5 		ldr	r1, .L17+28
 316 01a4 FEFFFFEB 		bl	BUF_Put
  77:../../test/test.c **** 	BUF_Put(&BUF, "456");
 317              		.loc 1 77 0
 318 01a8 68009FE5 		ldr	r0, .L17
 319 01ac 70109FE5 		ldr	r1, .L17+12
 320 01b0 FEFFFFEB 		bl	BUF_Put
  78:../../test/test.c **** 	
  79:../../test/test.c **** 	BUF_Put(&BUF, "789");
 321              		.loc 1 79 0
 322 01b4 5C009FE5 		ldr	r0, .L17
 323 01b8 68109FE5 		ldr	r1, .L17+16
 324 01bc FEFFFFEB 		bl	BUF_Put
  80:../../test/test.c **** 	
  81:../../test/test.c **** 	
  82:../../test/test.c **** 	MBX_Init(&EVENT_MSG);
 325              		.loc 1 82 0
 326 01c0 70009FE5 		ldr	r0, .L17+32
 327 01c4 FEFFFFEB 		bl	MBX_Init
  83:../../test/test.c **** 	TMR_Start(&DEMO_TMR, 5000, &TimeoutHandler, 100, &EVENT_MSG, 0, TMR_PERIODIC);
 328              		.loc 1 83 0
 329 01c8 68309FE5 		ldr	r3, .L17+32
 330 01cc 00308DE5 		str	r3, [sp, #0]
 331 01d0 0030A0E3 		mov	r3, #0
 332 01d4 04308DE5 		str	r3, [sp, #4]
 333 01d8 0130A0E3 		mov	r3, #1
 334 01dc 08308DE5 		str	r3, [sp, #8]
 335 01e0 54009FE5 		ldr	r0, .L17+36
 336 01e4 4E1DA0E3 		mov	r1, #4992
 337 01e8 081081E2 		add	r1, r1, #8
 338 01ec 28209FE5 		ldr	r2, .L17+4
 339 01f0 6430A0E3 		mov	r3, #100
 340 01f4 FEFFFFEB 		bl	TMR_Start
  84:../../test/test.c **** 		
  85:../../test/test.c **** 	uSMARTX_Init(tsk_tbl);	
 341              		.loc 1 85 0
 342 01f8 40009FE5 		ldr	r0, .L17+40
 343 01fc FEFFFFEB 		bl	uSMARTX_Init
 344              	.L12:
  86:../../test/test.c **** 	while(1) {
  87:../../test/test.c **** 		uSMARTX_Tick();
 345              		.loc 1 87 0
 346 0200 FEFFFFEB 		bl	uSMARTX_Tick
  88:../../test/test.c **** 		if(uSMARTX_Scheduler() == SYS_ERROR)
 347              		.loc 1 88 0
 348 0204 FEFFFFEB 		bl	uSMARTX_Scheduler
 349 0208 0030A0E1 		mov	r3, r0
 350 020c 010053E3 		cmp	r3, #1
 351 0210 7E00001A 		bne	.L12
 352              	.L15:
  89:../../test/test.c **** 			break;
  90:../../test/test.c **** 	}
  91:../../test/test.c **** 	
  92:../../test/test.c **** 	while(1);
 353              		.loc 1 92 0
 354 0214 830000EA 		b	.L15
 355              	.L18:
ARM GAS  /cygdrive/c/DOCUME~1/MARKOP~1/LOCALS~1/Temp/ccd60SXg.s 			page 9


 356              		.align	2
 357              	.L17:
 358 0218 00000000 		.word	BUF
 359 021c 00000000 		.word	TimeoutHandler
 360 0220 00000000 		.word	.LC0
 361 0224 04000000 		.word	.LC1
 362 0228 08000000 		.word	.LC2
 363 022c 0C000000 		.word	.LC3
 364 0230 10000000 		.word	.LC4
 365 0234 14000000 		.word	.LC5
 366 0238 00000000 		.word	EVENT_MSG
 367 023c 00000000 		.word	DEMO_TMR
 368 0240 00000000 		.word	tsk_tbl
 369              	.LFE6:
 370              		.size	main, .-main
 371              		.comm	TSK1_tcb,68,4
 372              		.comm	TSK3_tcb,68,4
 373              		.comm	TSK2_tcb,68,4
 374              		.comm	DEMO_TMR,32,4
 375              		.comm	mcb_msg_EVENT_MSG,60,4
 376              		.comm	mcb_buff_EVENT_MSG,5,1
 377              		.comm	bcb_buff_BUF,12,1
 378              		.section	.debug_frame,"",%progbits
 379              	.Lframe0:
 380 0000 0C000000 		.4byte	.LECIE0-.LSCIE0
 381              	.LSCIE0:
 382 0004 FFFFFFFF 		.4byte	0xffffffff
 383 0008 01       		.byte	0x1
 384 0009 00       		.ascii	"\000"
 385 000a 01       		.uleb128 0x1
 386 000b 7C       		.sleb128 -4
 387 000c 0E       		.byte	0xe
 388 000d 0C       		.byte	0xc
 389 000e 0D       		.uleb128 0xd
 390 000f 00       		.uleb128 0x0
 391              		.align	2
 392              	.LECIE0:
 393              	.LSFDE0:
 394 0010 1C000000 		.4byte	.LEFDE0-.LASFDE0
 395              	.LASFDE0:
 396 0014 00000000 		.4byte	.Lframe0
 397 0018 00000000 		.4byte	.LFB2
 398 001c 34000000 		.4byte	.LFE2-.LFB2
 399 0020 44       		.byte	0x4
 400              		.4byte	.LCFI0-.LFB2
 401 0021 0D       		.byte	0xd
 402 0022 0C       		.uleb128 0xc
 403 0023 44       		.byte	0x4
 404              		.4byte	.LCFI1-.LCFI0
 405 0024 8E       		.byte	0x8e
 406 0025 02       		.uleb128 0x2
 407 0026 8D       		.byte	0x8d
 408 0027 03       		.uleb128 0x3
 409 0028 8B       		.byte	0x8b
 410 0029 04       		.uleb128 0x4
 411 002a 44       		.byte	0x4
 412              		.4byte	.LCFI2-.LCFI1
ARM GAS  /cygdrive/c/DOCUME~1/MARKOP~1/LOCALS~1/Temp/ccd60SXg.s 			page 10


 413 002b 0C       		.byte	0xc
 414 002c 0B       		.uleb128 0xb
 415 002d 04       		.uleb128 0x4
 416 002e 0000     		.align	2
 417              	.LEFDE0:
 418              	.LSFDE2:
 419 0030 1C000000 		.4byte	.LEFDE2-.LASFDE2
 420              	.LASFDE2:
 421 0034 00000000 		.4byte	.Lframe0
 422 0038 34000000 		.4byte	.LFB3
 423 003c 38000000 		.4byte	.LFE3-.LFB3
 424 0040 44       		.byte	0x4
 425              		.4byte	.LCFI4-.LFB3
 426 0041 0D       		.byte	0xd
 427 0042 0C       		.uleb128 0xc
 428 0043 44       		.byte	0x4
 429              		.4byte	.LCFI5-.LCFI4
 430 0044 8E       		.byte	0x8e
 431 0045 02       		.uleb128 0x2
 432 0046 8D       		.byte	0x8d
 433 0047 03       		.uleb128 0x3
 434 0048 8B       		.byte	0x8b
 435 0049 04       		.uleb128 0x4
 436 004a 44       		.byte	0x4
 437              		.4byte	.LCFI6-.LCFI5
 438 004b 0C       		.byte	0xc
 439 004c 0B       		.uleb128 0xb
 440 004d 04       		.uleb128 0x4
 441 004e 0000     		.align	2
 442              	.LEFDE2:
 443              	.LSFDE4:
 444 0050 1C000000 		.4byte	.LEFDE4-.LASFDE4
 445              	.LASFDE4:
 446 0054 00000000 		.4byte	.Lframe0
 447 0058 6C000000 		.4byte	.LFB4
 448 005c 34000000 		.4byte	.LFE4-.LFB4
 449 0060 44       		.byte	0x4
 450              		.4byte	.LCFI8-.LFB4
 451 0061 0D       		.byte	0xd
 452 0062 0C       		.uleb128 0xc
 453 0063 44       		.byte	0x4
 454              		.4byte	.LCFI9-.LCFI8
 455 0064 8E       		.byte	0x8e
 456 0065 02       		.uleb128 0x2
 457 0066 8D       		.byte	0x8d
 458 0067 03       		.uleb128 0x3
 459 0068 8B       		.byte	0x8b
 460 0069 04       		.uleb128 0x4
 461 006a 44       		.byte	0x4
 462              		.4byte	.LCFI10-.LCFI9
 463 006b 0C       		.byte	0xc
 464 006c 0B       		.uleb128 0xb
 465 006d 04       		.uleb128 0x4
 466 006e 0000     		.align	2
 467              	.LEFDE4:
 468              	.LSFDE6:
 469 0070 1C000000 		.4byte	.LEFDE6-.LASFDE6
ARM GAS  /cygdrive/c/DOCUME~1/MARKOP~1/LOCALS~1/Temp/ccd60SXg.s 			page 11


 470              	.LASFDE6:
 471 0074 00000000 		.4byte	.Lframe0
 472 0078 A0000000 		.4byte	.LFB5
 473 007c 30000000 		.4byte	.LFE5-.LFB5
 474 0080 44       		.byte	0x4
 475              		.4byte	.LCFI12-.LFB5
 476 0081 0D       		.byte	0xd
 477 0082 0C       		.uleb128 0xc
 478 0083 44       		.byte	0x4
 479              		.4byte	.LCFI13-.LCFI12
 480 0084 8E       		.byte	0x8e
 481 0085 02       		.uleb128 0x2
 482 0086 8D       		.byte	0x8d
 483 0087 03       		.uleb128 0x3
 484 0088 8B       		.byte	0x8b
 485 0089 04       		.uleb128 0x4
 486 008a 44       		.byte	0x4
 487              		.4byte	.LCFI14-.LCFI13
 488 008b 0C       		.byte	0xc
 489 008c 0B       		.uleb128 0xb
 490 008d 04       		.uleb128 0x4
 491 008e 0000     		.align	2
 492              	.LEFDE6:
 493              	.LSFDE8:
 494 0090 1C000000 		.4byte	.LEFDE8-.LASFDE8
 495              	.LASFDE8:
 496 0094 00000000 		.4byte	.Lframe0
 497 0098 D0000000 		.4byte	.LFB6
 498 009c 74010000 		.4byte	.LFE6-.LFB6
 499 00a0 44       		.byte	0x4
 500              		.4byte	.LCFI16-.LFB6
 501 00a1 0D       		.byte	0xd
 502 00a2 0C       		.uleb128 0xc
 503 00a3 44       		.byte	0x4
 504              		.4byte	.LCFI17-.LCFI16
 505 00a4 8E       		.byte	0x8e
 506 00a5 02       		.uleb128 0x2
 507 00a6 8D       		.byte	0x8d
 508 00a7 03       		.uleb128 0x3
 509 00a8 8B       		.byte	0x8b
 510 00a9 04       		.uleb128 0x4
 511 00aa 44       		.byte	0x4
 512              		.4byte	.LCFI18-.LCFI17
 513 00ab 0C       		.byte	0xc
 514 00ac 0B       		.uleb128 0xb
 515 00ad 04       		.uleb128 0x4
 516 00ae 0000     		.align	2
 517              	.LEFDE8:
 518              		.file 2 "../../../inc/usmartx.h"
 519              		.text
 520              	.Letext0: